Certificate:
    Data:
        Version: 3 (0x2)
        Serial Number: 1 (0x1)
        Signature Algorithm: sha256WithRSAEncryption
        Issuer: C=FR, ST=Radius, L=Somewhere, O=Example Inc./emailAddress=admin@example.org, CN=Example Certificate Authority
        Validity
            Not Before: Apr 25 21:27:10 2021 GMT
            Not After : Jun 24 21:27:10 2021 GMT
        Subject: C=FR, ST=Radius, O=Example Inc., CN=Example Server Certificate/emailAddress=admin@example.org
        Subject Public Key Info:
            Public Key Algorithm: rsaEncryption
                RSA Public-Key: (2048 bit)
                Modulus:
                    00:94:09:77:ce:63:d2:38:65:e2:af:f4:39:77:22:
                    6c:69:1d:94:72:ae:d0:19:5c:7a:a4:ba:87:1e:f5:
                    f2:2a:a6:ae:36:fe:f9:c2:0b:9a:10:6d:bf:d7:39:
                    1a:ea:9d:59:b4:a6:7c:87:ae:2e:e8:0e:04:d0:80:
                    f7:2c:93:22:05:d8:db:cb:dc:76:6e:06:14:c2:70:
                    50:42:be:da:9f:e0:dc:06:d1:30:15:30:1a:2f:47:
                    f4:68:a5:4c:f6:b0:db:00:d8:05:64:ad:ed:b5:ba:
                    e2:08:05:49:43:82:34:73:3a:fe:c2:10:4b:1c:8c:
                    8f:44:f0:16:08:93:f1:40:60:20:6e:f5:20:d6:f3:
                    2f:86:26:35:1e:d9:bb:c1:94:a1:0c:84:ec:01:de:
                    d1:ec:b4:42:d7:36:7c:f8:17:63:2b:78:35:61:4c:
                    44:99:10:48:ef:16:ee:a1:1f:ab:02:84:44:ab:58:
                    d5:3a:9a:eb:f4:a0:7e:36:c2:5d:eb:74:01:f6:61:
                    2a:1d:8f:6a:59:46:07:f6:e6:5d:c3:4f:b0:58:7a:
                    6f:ca:f9:a2:e4:db:1e:7b:f4:fe:a4:d8:dc:f9:ee:
                    d2:04:2e:da:20:d3:e3:5f:9c:8d:f4:96:6c:c5:64:
                    c4:39:06:c3:f2:4c:35:18:aa:78:25:e4:4a:f1:ad:
                    df:49
                Exponent: 65537 (0x10001)
        X509v3 extensions:
            X509v3 Extended Key Usage: 
                TLS Web Server Authentication
            X509v3 CRL Distribution Points: 

                Full Name:
                  URI:http://www.example.com/example_ca.crl

            X509v3 Certificate Policies: 
                Policy: 1.3.6.1.4.1.40808.1.3.2

    Signature Algorithm: sha256WithRSAEncryption
         9e:08:09:5c:74:e6:a5:fd:2e:84:eb:e3:11:8a:7f:9d:33:20:
         31:f0:e4:a3:bf:c3:82:5f:d1:7a:d6:72:54:f9:b5:48:0a:e1:
         27:17:26:b6:71:cf:a4:44:d0:41:2f:e6:bc:e2:b3:ac:46:c2:
         fc:96:2f:34:be:54:62:f5:f4:8a:10:e3:3f:e6:15:58:9c:a5:
         57:61:75:1b:dc:ba:37:bd:09:6f:30:8f:18:48:49:2f:21:13:
         95:ac:91:3f:ad:c2:c2:7e:56:35:3a:c8:3d:47:e0:e7:0e:ca:
         e3:33:c7:ab:84:95:14:4c:c0:10:d4:39:f9:8b:9d:dc:f3:a6:
         ba:20:81:8e:b3:02:fc:42:35:89:47:78:d0:33:04:02:c1:be:
         42:3e:0b:9b:68:95:e6:3a:43:40:60:c1:f5:02:80:62:48:a9:
         68:7d:3b:f5:c1:5a:46:7d:52:64:f6:bc:f8:29:0e:ef:87:8c:
         e7:ef:04:49:6b:61:ce:cd:95:f0:7a:ad:e0:b5:f3:bc:34:c0:
         ea:e6:28:d0:cd:b9:93:1d:9d:e8:5c:16:25:b2:b7:d7:04:95:
         78:33:35:9f:03:95:ed:03:1a:69:59:db:30:74:c5:6c:ab:db:
         40:10:97:ce:26:9b:b6:10:dd:02:ba:66:17:61:03:e7:f5:20:
         d7:54:14:83
-----BEGIN CERTIFICATE-----
MIID9DCCAtygAwIBAgIBATANBgkqhkiG9w0BAQsFADCBkzELMAkGA1UEBhMCRlIx
DzANBgNVBAgMBlJhZGl1czESMBAGA1UEBwwJU29tZXdoZXJlMRUwEwYDVQQKDAxF
eGFtcGxlIEluYy4xIDAeBgkqhkiG9w0BCQEWEWFkbWluQGV4YW1wbGUub3JnMSYw
JAYDVQQDDB1FeGFtcGxlIENlcnRpZmljYXRlIEF1dGhvcml0eTAeFw0yMTA0MjUy
MTI3MTBaFw0yMTA2MjQyMTI3MTBaMHwxCzAJBgNVBAYTAkZSMQ8wDQYDVQQIDAZS
YWRpdXMxFTATBgNVBAoMDEV4YW1wbGUgSW5jLjEjMCEGA1UEAwwaRXhhbXBsZSBT
ZXJ2ZXIgQ2VydGlmaWNhdGUxIDAeBgkqhkiG9w0BCQEWEWFkbWluQGV4YW1wbGUu
b3JnMIIBIjANBgkqhkiG9w0BAQEFAAOCAQ8AMIIBCgKCAQEAlAl3zmPSOGXir/Q5
dyJsaR2Ucq7QGVx6pLqHHvXyKqauNv75wguaEG2/1zka6p1ZtKZ8h64u6A4E0ID3
LJMiBdjby9x2bgYUwnBQQr7an+DcBtEwFTAaL0f0aKVM9rDbANgFZK3ttbriCAVJ
Q4I0czr+whBLHIyPRPAWCJPxQGAgbvUg1vMvhiY1Htm7wZShDITsAd7R7LRC1zZ8
+BdjK3g1YUxEmRBI7xbuoR+rAoREq1jVOprr9KB+NsJd63QB9mEqHY9qWUYH9uZd
w0+wWHpvyvmi5Nsee/T+pNjc+e7SBC7aINPjX5yN9JZsxWTEOQbD8kw1GKp4JeRK
8a3fSQIDAQABo2kwZzATBgNVHSUEDDAKBggrBgEFBQcDATA2BgNVHR8ELzAtMCug
KaAnhiVodHRwOi8vd3d3LmV4YW1wbGUuY29tL2V4YW1wbGVfY2EuY3JsMBgGA1Ud
IAQRMA8wDQYLKwYBBAGCvmgBAwIwDQYJKoZIhvcNAQELBQADggEBAJ4ICVx05qX9
LoTr4xGKf50zIDHw5KO/w4Jf0XrWclT5tUgK4ScXJrZxz6RE0EEv5rzis6xGwvyW
LzS+VGL19IoQ4z/mFVicpVdhdRvcuje9CW8wjxhISS8hE5WskT+twsJ+VjU6yD1H
4OcOyuMzx6uElRRMwBDUOfmLndzzproggY6zAvxCNYlHeNAzBALBvkI+C5toleY6
Q0BgwfUCgGJIqWh9O/XBWkZ9UmT2vPgpDu+HjOfvBElrYc7NlfB6reC187w0wOrm
KNDNuZMdnehcFiWyt9cElXgzNZ8Dle0DGmlZ2zB0xWyr20AQl84mm7YQ3QK6Zhdh
A+f1INdUFIM=
-----END CERTIFICATE-----
