Certificate:
    Data:
        Version: 3 (0x2)
        Serial Number: 2 (0x2)
        Signature Algorithm: sha256WithRSAEncryption
        Issuer: C=FR, ST=Radius, L=Somewhere, O=Example Inc./emailAddress=admin@example.org, CN=Example Certificate Authority
        Validity
            Not Before: Apr 25 21:27:11 2021 GMT
            Not After : Jun 24 21:27:11 2021 GMT
        Subject: C=FR, ST=Radius, O=Example Inc., CN=user@example.org/emailAddress=user@example.org
        Subject Public Key Info:
            Public Key Algorithm: rsaEncryption
                RSA Public-Key: (2048 bit)
                Modulus:
                    00:bf:a7:de:59:8c:28:ab:6d:e1:2c:a7:b1:98:4d:
                    28:e7:75:86:c8:3a:cf:da:c8:40:ea:a0:a5:de:ee:
                    35:bc:af:b9:29:19:7e:97:3e:d2:7c:66:c8:6c:12:
                    48:9c:0c:d8:e9:dc:24:19:a0:8a:ed:20:81:20:b8:
                    39:d1:a9:a0:ad:33:99:2b:79:39:fc:9d:34:88:6c:
                    c7:14:e5:ea:18:d8:3d:2a:af:03:08:23:33:f3:61:
                    7f:6f:83:aa:e3:b3:14:2d:67:4f:7a:88:54:4d:20:
                    d1:00:d2:5c:04:22:d3:1a:b9:04:5d:db:f5:c1:48:
                    47:8e:e9:71:58:12:db:6b:4f:af:1f:f8:cb:31:de:
                    ff:53:94:18:c5:6d:e5:86:2b:64:2d:3d:56:92:ee:
                    43:c9:a6:6f:d3:3e:09:6b:22:dd:28:21:4d:2e:b7:
                    c1:45:11:67:04:9a:39:db:cd:bf:f3:1e:3a:45:27:
                    8a:32:6b:50:45:30:62:2f:34:fa:93:5f:dd:1d:31:
                    41:d6:38:cd:1f:77:08:73:f9:47:76:ef:3b:ca:7d:
                    8a:ea:a9:fe:5b:98:22:e8:25:c4:0c:ec:e8:9e:1e:
                    d2:2b:56:54:e9:6c:18:f1:71:0c:d6:77:1a:c3:a1:
                    5d:33:81:d4:86:3f:3e:ec:b7:06:53:e8:45:2c:00:
                    a8:09
                Exponent: 65537 (0x10001)
        X509v3 extensions:
            X509v3 Extended Key Usage: 
                TLS Web Client Authentication
            X509v3 CRL Distribution Points: 

                Full Name:
                  URI:http://www.example.com/example_ca.crl

    Signature Algorithm: sha256WithRSAEncryption
         2b:0d:10:87:73:e3:81:61:c0:58:95:16:6e:b4:c6:17:c5:3c:
         0a:9a:aa:b8:32:b4:75:c3:a8:21:e0:e8:76:df:90:40:35:90:
         79:76:d9:3d:2d:0f:6d:85:14:d2:37:9f:6e:bd:6c:bd:e9:b5:
         14:7e:f0:78:f0:cc:ff:24:ac:88:c1:7b:6c:33:73:6d:cd:93:
         45:69:30:45:97:83:b8:89:4e:6b:44:8e:38:d4:49:df:31:08:
         99:dd:26:fb:e1:4d:c3:21:d4:14:75:25:83:cc:a3:17:12:01:
         d4:21:21:b3:0a:47:21:b7:03:06:10:46:ce:c9:74:f5:d4:70:
         9c:79:48:44:eb:79:31:46:58:4a:6e:3c:f6:b1:f7:7a:b0:87:
         01:f9:bf:bf:8e:e4:09:2e:9f:b5:d4:fd:15:67:61:8c:54:2e:
         7f:ca:b0:95:b2:9d:e7:38:17:cc:56:f0:32:c9:90:69:3d:b5:
         b3:7e:38:fc:a6:9e:4b:af:5b:8d:a0:4e:37:29:69:35:e4:f9:
         05:b7:2f:52:bb:cb:44:95:15:03:48:a1:d8:8d:f3:cb:3d:40:
         6e:e9:d5:55:2b:9f:3a:fb:c2:7e:14:be:20:e3:d0:02:a6:0d:
         36:2b:fb:22:cb:60:6d:eb:c0:1b:91:47:7f:fd:f2:ef:c8:3c:
         f9:f3:ca:e0
-----BEGIN CERTIFICATE-----
MIIDzzCCAregAwIBAgIBAjANBgkqhkiG9w0BAQsFADCBkzELMAkGA1UEBhMCRlIx
DzANBgNVBAgMBlJhZGl1czESMBAGA1UEBwwJU29tZXdoZXJlMRUwEwYDVQQKDAxF
eGFtcGxlIEluYy4xIDAeBgkqhkiG9w0BCQEWEWFkbWluQGV4YW1wbGUub3JnMSYw
JAYDVQQDDB1FeGFtcGxlIENlcnRpZmljYXRlIEF1dGhvcml0eTAeFw0yMTA0MjUy
MTI3MTFaFw0yMTA2MjQyMTI3MTFaMHExCzAJBgNVBAYTAkZSMQ8wDQYDVQQIDAZS
YWRpdXMxFTATBgNVBAoMDEV4YW1wbGUgSW5jLjEZMBcGA1UEAwwQdXNlckBleGFt
cGxlLm9yZzEfMB0GCSqGSIb3DQEJARYQdXNlckBleGFtcGxlLm9yZzCCASIwDQYJ
KoZIhvcNAQEBBQADggEPADCCAQoCggEBAL+n3lmMKKtt4SynsZhNKOd1hsg6z9rI
QOqgpd7uNbyvuSkZfpc+0nxmyGwSSJwM2OncJBmgiu0ggSC4OdGpoK0zmSt5Ofyd
NIhsxxTl6hjYPSqvAwgjM/Nhf2+DquOzFC1nT3qIVE0g0QDSXAQi0xq5BF3b9cFI
R47pcVgS22tPrx/4yzHe/1OUGMVt5YYrZC09VpLuQ8mmb9M+CWsi3SghTS63wUUR
ZwSaOdvNv/MeOkUnijJrUEUwYi80+pNf3R0xQdY4zR93CHP5R3bvO8p9iuqp/luY
IuglxAzs6J4e0itWVOlsGPFxDNZ3GsOhXTOB1IY/Puy3BlPoRSwAqAkCAwEAAaNP
ME0wEwYDVR0lBAwwCgYIKwYBBQUHAwIwNgYDVR0fBC8wLTAroCmgJ4YlaHR0cDov
L3d3dy5leGFtcGxlLmNvbS9leGFtcGxlX2NhLmNybDANBgkqhkiG9w0BAQsFAAOC
AQEAKw0Qh3PjgWHAWJUWbrTGF8U8CpqquDK0dcOoIeDodt+QQDWQeXbZPS0PbYUU
0jefbr1svem1FH7wePDM/ySsiMF7bDNzbc2TRWkwRZeDuIlOa0SOONRJ3zEImd0m
++FNwyHUFHUlg8yjFxIB1CEhswpHIbcDBhBGzsl09dRwnHlIROt5MUZYSm489rH3
erCHAfm/v47kCS6ftdT9FWdhjFQuf8qwlbKd5zgXzFbwMsmQaT21s344/KaeS69b
jaBONylpNeT5BbcvUrvLRJUVA0ih2I3zyz1AbunVVSufOvvCfhS+IOPQAqYNNiv7
IstgbevAG5FHf/3y78g8+fPK4A==
-----END CERTIFICATE-----
